target datalayout = "e-m:e-p270:32:32-p271:32:32-p272:64:64-i64:64-i128:128-f80:128-n8:16:32:64-S128"
target triple = "x86_64-pc-linux-gnu"

%struct.imageIODataStruct = type { ptr, ptr, %struct.streamBufferStruct, %struct.pixelBufferStruct, i8 }
%struct.streamBufferStruct = type { ptr, ptr, ptr, i64, i64, i32, i64 }
%struct.pixelBufferStruct = type { ptr, i32, %union.pixptr }
%union.pixptr = type { ptr }
%struct.JNINativeInterface_ = type { ptr, ptr, ptr, ptr, ptr, ptr, ptr, ptr, ptr, ptr, ptr, ptr, ptr, ptr, ptr, ptr, ptr, ptr, ptr, ptr, ptr, ptr, ptr, ptr, ptr, ptr, ptr, ptr, ptr, ptr, ptr, ptr, ptr, ptr, ptr, ptr, ptr, ptr, ptr, ptr, ptr, ptr, ptr, ptr, ptr, ptr, ptr, ptr, ptr, ptr, ptr, ptr, ptr, ptr, ptr, ptr, ptr, ptr, ptr, ptr, ptr, ptr, ptr, ptr, ptr, ptr, ptr, ptr, ptr, ptr, ptr, ptr, ptr, ptr, ptr, ptr, ptr, ptr, ptr, ptr, ptr, ptr, ptr, ptr, ptr, ptr, ptr, ptr, ptr, ptr, ptr, ptr, ptr, ptr, ptr, ptr, ptr, ptr, ptr, ptr, ptr, ptr, ptr, ptr, ptr, ptr, ptr, ptr, ptr, ptr, ptr, ptr, ptr, ptr, ptr, ptr, ptr, ptr, ptr, ptr, ptr, ptr, ptr, ptr, ptr, ptr, ptr, ptr, ptr, ptr, ptr, ptr, ptr, ptr, ptr, ptr, ptr, ptr, ptr, ptr, ptr, ptr, ptr, ptr, ptr, ptr, ptr, ptr, ptr, ptr, ptr, ptr, ptr, ptr, ptr, ptr, ptr, ptr, ptr, ptr, ptr, ptr, ptr, ptr, ptr, ptr, ptr, ptr, ptr, ptr, ptr, ptr, ptr, ptr, ptr, ptr, ptr, ptr, ptr, ptr, ptr, ptr, ptr, ptr, ptr, ptr, ptr, ptr, ptr, ptr, ptr, ptr, ptr, ptr, ptr, ptr, ptr, ptr, ptr, ptr, ptr, ptr, ptr, ptr, ptr, ptr, ptr, ptr, ptr, ptr, ptr, ptr, ptr, ptr, ptr, ptr, ptr, ptr, ptr, ptr, ptr, ptr, ptr, ptr, ptr, ptr, ptr, ptr, ptr, ptr, ptr, ptr, ptr, ptr, ptr }

; Function Attrs: nounwind uwtable
define internal void @unpinPixelBuffer(ptr noundef %0, ptr noundef %1) #0 {
  %3 = alloca ptr, align 8
  %4 = alloca ptr, align 8
  store ptr %0, ptr %3, align 8
  store ptr %1, ptr %4, align 8
  %5 = load ptr, ptr %4, align 8
  %6 = getelementptr inbounds %struct.pixelBufferStruct, ptr %5, i32 0, i32 2
  %7 = load ptr, ptr %6, align 8
  %8 = icmp ne ptr %7, null
  br i1 %8, label %9, label %23

9:                                                ; preds = %2
  %10 = load ptr, ptr %3, align 8
  %11 = load ptr, ptr %10, align 8
  %12 = getelementptr inbounds %struct.JNINativeInterface_, ptr %11, i32 0, i32 223
  %13 = load ptr, ptr %12, align 8
  %14 = load ptr, ptr %3, align 8
  %15 = load ptr, ptr %4, align 8
  %16 = getelementptr inbounds %struct.pixelBufferStruct, ptr %15, i32 0, i32 0
  %17 = load ptr, ptr %16, align 8
  %18 = load ptr, ptr %4, align 8
  %19 = getelementptr inbounds %struct.pixelBufferStruct, ptr %18, i32 0, i32 2
  %20 = load ptr, ptr %19, align 8
  call void %13(ptr noundef %14, ptr noundef %17, ptr noundef %20, i32 noundef 0)
  %21 = load ptr, ptr %4, align 8
  %22 = getelementptr inbounds %struct.pixelBufferStruct, ptr %21, i32 0, i32 2
  store ptr null, ptr %22, align 8
  br label %23

23:                                               ; preds = %9, %2
  ret void
}

; Function Attrs: nounwind uwtable
define internal void @unpinStreamBuffer(ptr noundef %0, ptr noundef %1, ptr noundef %2) #0 {
  %4 = alloca ptr, align 8
  %5 = alloca ptr, align 8
  %6 = alloca ptr, align 8
  store ptr %0, ptr %4, align 8
  store ptr %1, ptr %5, align 8
  store ptr %2, ptr %6, align 8
  %7 = load ptr, ptr %5, align 8
  %8 = getelementptr inbounds %struct.streamBufferStruct, ptr %7, i32 0, i32 2
  %9 = load ptr, ptr %8, align 8
  %10 = icmp ne ptr %9, null
  br i1 %10, label %11, label %41

11:                                               ; preds = %3
  %12 = load ptr, ptr %6, align 8
  %13 = icmp eq ptr %12, null
  br i1 %13, label %14, label %17

14:                                               ; preds = %11
  %15 = load ptr, ptr %5, align 8
  %16 = getelementptr inbounds %struct.streamBufferStruct, ptr %15, i32 0, i32 3
  store i64 -1, ptr %16, align 8
  br label %27

17:                                               ; preds = %11
  %18 = load ptr, ptr %6, align 8
  %19 = load ptr, ptr %5, align 8
  %20 = getelementptr inbounds %struct.streamBufferStruct, ptr %19, i32 0, i32 2
  %21 = load ptr, ptr %20, align 8
  %22 = ptrtoint ptr %18 to i64
  %23 = ptrtoint ptr %21 to i64
  %24 = sub i64 %22, %23
  %25 = load ptr, ptr %5, align 8
  %26 = getelementptr inbounds %struct.streamBufferStruct, ptr %25, i32 0, i32 3
  store i64 %24, ptr %26, align 8
  br label %27

27:                                               ; preds = %17, %14
  %28 = load ptr, ptr %4, align 8
  %29 = load ptr, ptr %28, align 8
  %30 = getelementptr inbounds %struct.JNINativeInterface_, ptr %29, i32 0, i32 223
  %31 = load ptr, ptr %30, align 8
  %32 = load ptr, ptr %4, align 8
  %33 = load ptr, ptr %5, align 8
  %34 = getelementptr inbounds %struct.streamBufferStruct, ptr %33, i32 0, i32 1
  %35 = load ptr, ptr %34, align 8
  %36 = load ptr, ptr %5, align 8
  %37 = getelementptr inbounds %struct.streamBufferStruct, ptr %36, i32 0, i32 2
  %38 = load ptr, ptr %37, align 8
  call void %31(ptr noundef %32, ptr noundef %35, ptr noundef %38, i32 noundef 0)
  %39 = load ptr, ptr %5, align 8
  %40 = getelementptr inbounds %struct.streamBufferStruct, ptr %39, i32 0, i32 2
  store ptr null, ptr %40, align 8
  br label %41

41:                                               ; preds = %27, %3
  ret void
}

; Function Attrs: nounwind uwtable
define internal void @RELEASE_ARRAYS(ptr noundef %0, ptr noundef %1, ptr noundef %2) #0 {
  %4 = alloca ptr, align 8
  %5 = alloca ptr, align 8
  %6 = alloca ptr, align 8
  store ptr %0, ptr %4, align 8
  store ptr %1, ptr %5, align 8
  store ptr %2, ptr %6, align 8
  %7 = load ptr, ptr %4, align 8
  %8 = load ptr, ptr %5, align 8
  %9 = getelementptr inbounds %struct.imageIODataStruct, ptr %8, i32 0, i32 2
  %10 = load ptr, ptr %6, align 8
  call void @unpinStreamBuffer(ptr noundef %7, ptr noundef %9, ptr noundef %10)
  %11 = load ptr, ptr %4, align 8
  %12 = load ptr, ptr %5, align 8
  %13 = getelementptr inbounds %struct.imageIODataStruct, ptr %12, i32 0, i32 3
  call void @unpinPixelBuffer(ptr noundef %11, ptr noundef %13)
  ret void
}

; Function Attrs: nounwind uwtable
define internal i32 @pinPixelBuffer(ptr noundef %0, ptr noundef %1) #0 {
  %3 = alloca i32, align 4
  %4 = alloca ptr, align 8
  %5 = alloca ptr, align 8
  store ptr %0, ptr %4, align 8
  store ptr %1, ptr %5, align 8
  %6 = load ptr, ptr %5, align 8
  %7 = getelementptr inbounds %struct.pixelBufferStruct, ptr %6, i32 0, i32 0
  %8 = load ptr, ptr %7, align 8
  %9 = icmp ne ptr %8, null
  br i1 %9, label %10, label %28

10:                                               ; preds = %2
  %11 = load ptr, ptr %4, align 8
  %12 = load ptr, ptr %11, align 8
  %13 = getelementptr inbounds %struct.JNINativeInterface_, ptr %12, i32 0, i32 222
  %14 = load ptr, ptr %13, align 8
  %15 = load ptr, ptr %4, align 8
  %16 = load ptr, ptr %5, align 8
  %17 = getelementptr inbounds %struct.pixelBufferStruct, ptr %16, i32 0, i32 0
  %18 = load ptr, ptr %17, align 8
  %19 = call ptr %14(ptr noundef %15, ptr noundef %18, ptr noundef null)
  %20 = load ptr, ptr %5, align 8
  %21 = getelementptr inbounds %struct.pixelBufferStruct, ptr %20, i32 0, i32 2
  store ptr %19, ptr %21, align 8
  %22 = load ptr, ptr %5, align 8
  %23 = getelementptr inbounds %struct.pixelBufferStruct, ptr %22, i32 0, i32 2
  %24 = load ptr, ptr %23, align 8
  %25 = icmp eq ptr %24, null
  br i1 %25, label %26, label %27

26:                                               ; preds = %10
  store i32 0, ptr %3, align 4
  br label %29

27:                                               ; preds = %10
  br label %28

28:                                               ; preds = %27, %2
  store i32 1, ptr %3, align 4
  br label %29

29:                                               ; preds = %28, %26
  %30 = load i32, ptr %3, align 4
  ret i32 %30
}

; Function Attrs: nounwind uwtable
define internal i32 @pinStreamBuffer(ptr noundef %0, ptr noundef %1, ptr noundef %2) #0 {
  %4 = alloca i32, align 4
  %5 = alloca ptr, align 8
  %6 = alloca ptr, align 8
  %7 = alloca ptr, align 8
  store ptr %0, ptr %5, align 8
  store ptr %1, ptr %6, align 8
  store ptr %2, ptr %7, align 8
  %8 = load ptr, ptr %6, align 8
  %9 = getelementptr inbounds %struct.streamBufferStruct, ptr %8, i32 0, i32 1
  %10 = load ptr, ptr %9, align 8
  %11 = icmp ne ptr %10, null
  br i1 %11, label %12, label %44

12:                                               ; preds = %3
  %13 = load ptr, ptr %5, align 8
  %14 = load ptr, ptr %13, align 8
  %15 = getelementptr inbounds %struct.JNINativeInterface_, ptr %14, i32 0, i32 222
  %16 = load ptr, ptr %15, align 8
  %17 = load ptr, ptr %5, align 8
  %18 = load ptr, ptr %6, align 8
  %19 = getelementptr inbounds %struct.streamBufferStruct, ptr %18, i32 0, i32 1
  %20 = load ptr, ptr %19, align 8
  %21 = call ptr %16(ptr noundef %17, ptr noundef %20, ptr noundef null)
  %22 = load ptr, ptr %6, align 8
  %23 = getelementptr inbounds %struct.streamBufferStruct, ptr %22, i32 0, i32 2
  store ptr %21, ptr %23, align 8
  %24 = load ptr, ptr %6, align 8
  %25 = getelementptr inbounds %struct.streamBufferStruct, ptr %24, i32 0, i32 2
  %26 = load ptr, ptr %25, align 8
  %27 = icmp eq ptr %26, null
  br i1 %27, label %28, label %29

28:                                               ; preds = %12
  store i32 0, ptr %4, align 4
  br label %45

29:                                               ; preds = %12
  %30 = load ptr, ptr %6, align 8
  %31 = getelementptr inbounds %struct.streamBufferStruct, ptr %30, i32 0, i32 3
  %32 = load i64, ptr %31, align 8
  %33 = icmp ne i64 %32, -1
  br i1 %33, label %34, label %43

34:                                               ; preds = %29
  %35 = load ptr, ptr %6, align 8
  %36 = getelementptr inbounds %struct.streamBufferStruct, ptr %35, i32 0, i32 2
  %37 = load ptr, ptr %36, align 8
  %38 = load ptr, ptr %6, align 8
  %39 = getelementptr inbounds %struct.streamBufferStruct, ptr %38, i32 0, i32 3
  %40 = load i64, ptr %39, align 8
  %41 = getelementptr inbounds i8, ptr %37, i64 %40
  %42 = load ptr, ptr %7, align 8
  store ptr %41, ptr %42, align 8
  br label %43

43:                                               ; preds = %34, %29
  br label %44

44:                                               ; preds = %43, %3
  store i32 1, ptr %4, align 4
  br label %45

45:                                               ; preds = %44, %28
  %46 = load i32, ptr %4, align 4
  ret i32 %46
}

; Function Attrs: nounwind uwtable
define internal i32 @GET_ARRAYS(ptr noundef %0, ptr noundef %1, ptr noundef %2) #0 {
  %4 = alloca i32, align 4
  %5 = alloca ptr, align 8
  %6 = alloca ptr, align 8
  %7 = alloca ptr, align 8
  store ptr %0, ptr %5, align 8
  store ptr %1, ptr %6, align 8
  store ptr %2, ptr %7, align 8
  %8 = load ptr, ptr %5, align 8
  %9 = load ptr, ptr %6, align 8
  %10 = getelementptr inbounds %struct.imageIODataStruct, ptr %9, i32 0, i32 2
  %11 = load ptr, ptr %7, align 8
  %12 = call i32 @pinStreamBuffer(ptr noundef %8, ptr noundef %10, ptr noundef %11)
  %13 = icmp eq i32 %12, 0
  br i1 %13, label %14, label %15

14:                                               ; preds = %3
  store i32 0, ptr %4, align 4
  br label %27

15:                                               ; preds = %3
  %16 = load ptr, ptr %5, align 8
  %17 = load ptr, ptr %6, align 8
  %18 = getelementptr inbounds %struct.imageIODataStruct, ptr %17, i32 0, i32 3
  %19 = call i32 @pinPixelBuffer(ptr noundef %16, ptr noundef %18)
  %20 = icmp eq i32 %19, 0
  br i1 %20, label %21, label %26

21:                                               ; preds = %15
  %22 = load ptr, ptr %5, align 8
  %23 = load ptr, ptr %6, align 8
  %24 = load ptr, ptr %7, align 8
  %25 = load ptr, ptr %24, align 8
  call void @RELEASE_ARRAYS(ptr noundef %22, ptr noundef %23, ptr noundef %25)
  store i32 0, ptr %4, align 4
  br label %27

26:                                               ; preds = %15
  store i32 1, ptr %4, align 4
  br label %27

27:                                               ; preds = %26, %21, %14
  %28 = load i32, ptr %4, align 4
  ret i32 %28
}