; Function Attrs: nounwind uwtable
define internal fastcc range(i32 0, 2) i32 @GET_ARRAYS(ptr noundef %0, ptr nocapture noundef %1, ptr nocapture noundef %2) unnamed_addr #1 {
  %4 = getelementptr inbounds i8, ptr %1, i64 24
  %5 = load ptr, ptr %4, align 8
  %.not.i = icmp eq ptr %5, null
  br i1 %.not.i, label %18, label %6

6:                                                ; preds = %3
  %7 = load ptr, ptr %0, align 8
  %8 = getelementptr inbounds i8, ptr %7, i64 1776
  %9 = load ptr, ptr %8, align 8
  %10 = tail call ptr %9(ptr noundef nonnull %0, ptr noundef nonnull %5, ptr noundef null) #13
  %11 = getelementptr inbounds i8, ptr %1, i64 32
  store ptr %10, ptr %11, align 8
  %12 = icmp eq ptr %10, null
  br i1 %12, label %pinStreamBuffer.exit, label %13

13:                                               ; preds = %6
  %14 = getelementptr inbounds i8, ptr %1, i64 40
  %15 = load i64, ptr %14, align 8
  %.not13.i = icmp eq i64 %15, -1
  br i1 %.not13.i, label %18, label %16

16:                                               ; preds = %13
  %17 = getelementptr inbounds i8, ptr %10, i64 %15
  store ptr %17, ptr %2, align 8
  br label %18

18:                                               ; preds = %13, %16, %3
  %19 = getelementptr inbounds i8, ptr %1, i64 72
  %20 = load ptr, ptr %19, align 8
  %.not.i8 = icmp eq ptr %20, null
  br i1 %.not.i8, label %pinStreamBuffer.exit, label %21

21:                                               ; preds = %18
  %22 = load ptr, ptr %0, align 8
  %23 = getelementptr inbounds i8, ptr %22, i64 1776
  %24 = load ptr, ptr %23, align 8
  %25 = tail call ptr %24(ptr noundef nonnull %0, ptr noundef nonnull %20, ptr noundef null) #13
  %26 = getelementptr inbounds i8, ptr %1, i64 88
  store ptr %25, ptr %26, align 8
  %27 = icmp eq ptr %25, null
  br i1 %27, label %28, label %pinStreamBuffer.exit

28:                                               ; preds = %21
  %29 = getelementptr inbounds i8, ptr %1, i64 32
  %30 = load ptr, ptr %29, align 8
  %.not.i.i = icmp eq ptr %30, null
  br i1 %.not.i.i, label %pinStreamBuffer.exit, label %unpinStreamBuffer.exit.i

unpinStreamBuffer.exit.i:                         ; preds = %28
  %31 = load ptr, ptr %2, align 8
  %32 = icmp eq ptr %31, null
  %33 = ptrtoint ptr %31 to i64
  %34 = ptrtoint ptr %30 to i64
  %35 = sub i64 %33, %34
  %.sink.i.i = select i1 %32, i64 -1, i64 %35
  %36 = getelementptr inbounds i8, ptr %1, i64 40
  store i64 %.sink.i.i, ptr %36, align 8
  %37 = load ptr, ptr %0, align 8
  %38 = getelementptr inbounds i8, ptr %37, i64 1784
  %39 = load ptr, ptr %38, align 8
  %40 = load ptr, ptr %4, align 8
  tail call void %39(ptr noundef nonnull %0, ptr noundef %40, ptr noundef nonnull %30, i32 noundef 0) #13
  store ptr null, ptr %29, align 8
  %.pre = load ptr, ptr %26, align 8
  %.not.i5.i = icmp eq ptr %.pre, null
  br i1 %.not.i5.i, label %pinStreamBuffer.exit, label %41

41:                                               ; preds = %unpinStreamBuffer.exit.i
  %42 = load ptr, ptr %0, align 8
  %43 = getelementptr inbounds i8, ptr %42, i64 1784
  %44 = load ptr, ptr %43, align 8
  %45 = load ptr, ptr %19, align 8
  tail call void %44(ptr noundef nonnull %0, ptr noundef %45, ptr noundef nonnull %.pre, i32 noundef 0) #13
  store ptr null, ptr %26, align 8
  br label %pinStreamBuffer.exit

pinStreamBuffer.exit:                             ; preds = %28, %41, %unpinStreamBuffer.exit.i, %21, %18, %6
  %.0 = phi i32 [ 0, %6 ], [ 1, %18 ], [ 1, %21 ], [ 0, %unpinStreamBuffer.exit.i ], [ 0, %41 ], [ 0, %28 ]
  ret i32 %.0
}